target datalayout = "e-m:e-p270:32:32-p271:32:32-p272:64:64-i64:64-i128:128-f80:128-n8:16:32:64-S128"
target triple = "x86_64-pc-linux-gnu"

%struct.RangeVar = type { i32, ptr, ptr, ptr, i8, i8, ptr, i32 }

@.str = private unnamed_addr constant [26 x i8] c"cannot lock relation \22%s\22\00", align 1
@.str.1 = private unnamed_addr constant [11 x i8] c"lockcmds.c\00", align 1
@__func__.RangeVarCallbackForLockTable = private unnamed_addr constant [29 x i8] c"RangeVarCallbackForLockTable\00", align 1
@MyXactFlags = external global i32, align 4

; Function Attrs: nounwind uwtable
define internal i32 @LockTableAclCheck(i32 noundef %0, i32 noundef %1, i32 noundef %2) #0 {
  %4 = alloca i32, align 4
  %5 = alloca i32, align 4
  %6 = alloca i32, align 4
  %7 = alloca i32, align 4
  %8 = alloca i64, align 8
  store i32 %0, ptr %4, align 4
  store i32 %1, ptr %5, align 4
  store i32 %2, ptr %6, align 4
  call void @llvm.lifetime.start.p0(i64 4, ptr %7) #6
  call void @llvm.lifetime.start.p0(i64 8, ptr %8) #6
  store i64 16412, ptr %8, align 8
  %9 = load i32, ptr %5, align 4
  %10 = icmp sle i32 %9, 1
  br i1 %10, label %11, label %14

11:                                               ; preds = %3
  %12 = load i64, ptr %8, align 8
  %13 = or i64 %12, 2
  store i64 %13, ptr %8, align 8
  br label %14

14:                                               ; preds = %11, %3
  %15 = load i32, ptr %5, align 4
  %16 = icmp sle i32 %15, 3
  br i1 %16, label %17, label %20

17:                                               ; preds = %14
  %18 = load i64, ptr %8, align 8
  %19 = or i64 %18, 1
  store i64 %19, ptr %8, align 8
  br label %20

20:                                               ; preds = %17, %14
  %21 = load i32, ptr %4, align 4
  %22 = load i32, ptr %6, align 4
  %23 = load i64, ptr %8, align 8
  %24 = call i32 @pg_class_aclcheck(i32 noundef %21, i32 noundef %22, i64 noundef %23)
  store i32 %24, ptr %7, align 4
  %25 = load i32, ptr %7, align 4
  call void @llvm.lifetime.end.p0(i64 8, ptr %8) #6
  call void @llvm.lifetime.end.p0(i64 4, ptr %7) #6
  ret i32 %25
}

; Function Attrs: nounwind uwtable
define internal void @RangeVarCallbackForLockTable(ptr noundef %0, i32 noundef %1, i32 noundef %2, ptr noundef %3) #0 {
  %5 = alloca ptr, align 8
  %6 = alloca i32, align 4
  %7 = alloca i32, align 4
  %8 = alloca ptr, align 8
  %9 = alloca i32, align 4
  %10 = alloca i8, align 1
  %11 = alloca i8, align 1
  %12 = alloca i32, align 4
  %13 = alloca i32, align 4
  store ptr %0, ptr %5, align 8
  store i32 %1, ptr %6, align 4
  store i32 %2, ptr %7, align 4
  store ptr %3, ptr %8, align 8
  call void @llvm.lifetime.start.p0(i64 4, ptr %9) #6
  %14 = load ptr, ptr %8, align 8
  %15 = load i32, ptr %14, align 4
  store i32 %15, ptr %9, align 4
  call void @llvm.lifetime.start.p0(i64 1, ptr %10) #6
  call void @llvm.lifetime.start.p0(i64 1, ptr %11) #6
  call void @llvm.lifetime.start.p0(i64 4, ptr %12) #6
  %16 = load i32, ptr %6, align 4
  %17 = icmp ne i32 %16, 0
  br i1 %17, label %19, label %18

18:                                               ; preds = %4
  store i32 1, ptr %13, align 4
  br label %79

19:                                               ; preds = %4
  %20 = load i32, ptr %6, align 4
  %21 = call signext i8 @get_rel_relkind(i32 noundef %20)
  store i8 %21, ptr %10, align 1
  %22 = load i8, ptr %10, align 1
  %23 = icmp ne i8 %22, 0
  br i1 %23, label %25, label %24

24:                                               ; preds = %19
  store i32 1, ptr %13, align 4
  br label %79

25:                                               ; preds = %19
  %26 = load i8, ptr %10, align 1
  %27 = sext i8 %26 to i32
  %28 = icmp ne i32 %27, 114
  br i1 %28, label %29, label %54

29:                                               ; preds = %25
  %30 = load i8, ptr %10, align 1
  %31 = sext i8 %30 to i32
  %32 = icmp ne i32 %31, 112
  br i1 %32, label %33, label %54

33:                                               ; preds = %29
  %34 = load i8, ptr %10, align 1
  %35 = sext i8 %34 to i32
  %36 = icmp ne i32 %35, 118
  br i1 %36, label %37, label %54

37:                                               ; preds = %33
  br label %38

38:                                               ; preds = %37
  br i1 true, label %39, label %41

39:                                               ; preds = %38
  %40 = call zeroext i1 @errstart_cold(i32 noundef 21, ptr noundef null) #7
  br i1 %40, label %43, label %51

41:                                               ; preds = %38
  %42 = call zeroext i1 @errstart(i32 noundef 21, ptr noundef null)
  br i1 %42, label %43, label %51

43:                                               ; preds = %41, %39
  %44 = call i32 @errcode(i32 noundef 151027844)
  %45 = load ptr, ptr %5, align 8
  %46 = getelementptr inbounds nuw %struct.RangeVar, ptr %45, i32 0, i32 3
  %47 = load ptr, ptr %46, align 8
  %48 = call i32 (ptr, ...) @errmsg(ptr noundef @.str, ptr noundef %47)
  %49 = load i8, ptr %10, align 1
  %50 = call i32 @errdetail_relkind_not_supported(i8 noundef signext %49)
  call void @errfinish(ptr noundef @.str.1, i32 noundef 93, ptr noundef @__func__.RangeVarCallbackForLockTable)
  br label %51

51:                                               ; preds = %43, %41, %39
  unreachable

52:                                               ; No predecessors!
  br label %53

53:                                               ; preds = %52
  br label %54

54:                                               ; preds = %53, %33, %29, %25
  %55 = load i32, ptr %6, align 4
  %56 = call signext i8 @get_rel_persistence(i32 noundef %55)
  store i8 %56, ptr %11, align 1
  %57 = load i8, ptr %11, align 1
  %58 = sext i8 %57 to i32
  %59 = icmp eq i32 %58, 116
  br i1 %59, label %60, label %63

60:                                               ; preds = %54
  %61 = load i32, ptr @MyXactFlags, align 4
  %62 = or i32 %61, 1
  store i32 %62, ptr @MyXactFlags, align 4
  br label %63

63:                                               ; preds = %60, %54
  %64 = load i32, ptr %6, align 4
  %65 = load i32, ptr %9, align 4
  %66 = call i32 @GetUserId()
  %67 = call i32 @LockTableAclCheck(i32 noundef %64, i32 noundef %65, i32 noundef %66)
  store i32 %67, ptr %12, align 4
  %68 = load i32, ptr %12, align 4
  %69 = icmp ne i32 %68, 0
  br i1 %69, label %70, label %78

70:                                               ; preds = %63
  %71 = load i32, ptr %12, align 4
  %72 = load i32, ptr %6, align 4
  %73 = call signext i8 @get_rel_relkind(i32 noundef %72)
  %74 = call i32 @get_relkind_objtype(i8 noundef signext %73)
  %75 = load ptr, ptr %5, align 8
  %76 = getelementptr inbounds nuw %struct.RangeVar, ptr %75, i32 0, i32 3
  %77 = load ptr, ptr %76, align 8
  call void @aclcheck_error(i32 noundef %71, i32 noundef %74, ptr noundef %77)
  br label %78

78:                                               ; preds = %70, %63
  store i32 0, ptr %13, align 4
  br label %79

79:                                               ; preds = %78, %24, %18
  call void @llvm.lifetime.end.p0(i64 4, ptr %12) #6
  call void @llvm.lifetime.end.p0(i64 1, ptr %11) #6
  call void @llvm.lifetime.end.p0(i64 1, ptr %10) #6
  call void @llvm.lifetime.end.p0(i64 4, ptr %9) #6
  %80 = load i32, ptr %13, align 4
  switch i32 %80, label %82 [
    i32 0, label %81
    i32 1, label %81
  ]

81:                                               ; preds = %79, %79
  ret void

82:                                               ; preds = %79
  unreachable
}