; Function Attrs: nounwind uwtable
define internal void @RangeVarCallbackForLockTable(ptr noundef readonly captures(none) %0, i32 noundef %1, i32 %2, ptr noundef readonly captures(none) %3) #0 {
  %5 = load i32, ptr %3, align 4
  %.not = icmp eq i32 %1, 0
  br i1 %.not, label %32, label %6

6:                                                ; preds = %4
  %7 = tail call signext i8 @get_rel_relkind(i32 noundef %1) #5
  switch i8 %7, label %8 [
    i8 0, label %32
    i8 118, label %15
    i8 114, label %15
    i8 112, label %15
  ]

8:                                                ; preds = %6
  %9 = tail call zeroext i1 @errstart_cold(i32 noundef 21, ptr noundef null) #6
  tail call void @llvm.assume(i1 %9)
  %10 = tail call i32 @errcode(i32 noundef 151027844) #5
  %11 = getelementptr inbounds nuw i8, ptr %0, i64 24
  %12 = load ptr, ptr %11, align 8
  %13 = tail call i32 (ptr, ...) @errmsg(ptr noundef nonnull @.str, ptr noundef %12) #5
  %14 = tail call i32 @errdetail_relkind_not_supported(i8 noundef signext %7) #5
  tail call void @errfinish(ptr noundef nonnull @.str.1, i32 noundef 93, ptr noundef nonnull @__func__.RangeVarCallbackForLockTable) #5
  unreachable

15:                                               ; preds = %6, %6, %6
  %16 = tail call signext i8 @get_rel_persistence(i32 noundef %1) #5
  %17 = icmp eq i8 %16, 116
  br i1 %17, label %18, label %21

18:                                               ; preds = %15
  %19 = load i32, ptr @MyXactFlags, align 4
  %20 = or i32 %19, 1
  store i32 %20, ptr @MyXactFlags, align 4
  br label %21

21:                                               ; preds = %18, %15
  %22 = tail call i32 @GetUserId() #5
  %23 = icmp slt i32 %5, 2
  %spec.select.i = select i1 %23, i64 16414, i64 16412
  %24 = icmp slt i32 %5, 4
  %25 = zext i1 %24 to i64
  %.1.i = or disjoint i64 %spec.select.i, %25
  %26 = tail call i32 @pg_class_aclcheck(i32 noundef %1, i32 noundef %22, i64 noundef %.1.i) #5
  %.not24 = icmp eq i32 %26, 0
  br i1 %.not24, label %32, label %27

27:                                               ; preds = %21
  %28 = tail call signext i8 @get_rel_relkind(i32 noundef %1) #5
  %29 = tail call i32 @get_relkind_objtype(i8 noundef signext %28) #5
  %30 = getelementptr inbounds nuw i8, ptr %0, i64 24
  %31 = load ptr, ptr %30, align 8
  tail call void @aclcheck_error(i32 noundef %26, i32 noundef %29, ptr noundef %31) #5
  br label %32

32:                                               ; preds = %6, %21, %27, %4
  ret void
}